(iAlexaHandler.Block.BlockChain
BlockChain
p0
(dp1
S'session'
p2
S'alexa'
p3
sS'name'
p4
g3
sS'BlockList'
p5
(lp6
(iAlexaHandler.Block.HistogramBlock
HistogramBlock
p7
(dp8
S'cache_path'
p9
S''
p10
sg2
S'alexa'
p11
sS'type'
p12
S'histogram'
p13
sg4
S'Histogram'
p14
sS'options'
p15
(lp16
S'plot'
p17
asba(iAlexaHandler.Block.HistogramBlock
HistogramBlock
p18
(dp19
g9
g10
sg2
g11
sg12
g13
sg4
g14
sg15
(lp20
g17
asba(iAlexaHandler.Block.ImageBlock
ImageBlock
p21
(dp22
g4
S'test.jpg'
p23
sS'cached'
p24
I01
sg2
g11
sg12
S'image'
p25
sg15
(lp26
S'show'
p27
asS'img_path'
p28
S'cache/alexa/test.jpg'
p29
sba(iAlexaHandler.Block.HistogramBlock
HistogramBlock
p30
(dp31
g9
g10
sg2
g11
sg12
g13
sg4
g14
sg15
(lp32
g17
asba(iAlexaHandler.Block.ImageBlock
ImageBlock
p33
(dp34
g4
S'test.jpg'
p35
sg24
I01
sg2
S'alexa'
p36
sg12
S'image'
p37
sg15
(lp38
S'show'
p39
asg28
S'/home/ignacio/Alexa_Server/cache/alexa/test.jpg'
p40
sbasS'ConnectionList'
p41
(lp42
sb.