(iAlexaHandler.Block.BlockChain
BlockChain
p0
(dp1
S'varList'
p2
(lp3
(lp4
asS'session'
p5
S'alexa'
p6
sS'name'
p7
g6
sS'BlockList'
p8
(lp9
(iAlexaHandler.Block.MessageBlock
MessageBlock
p10
(dp11
g7
S'[user] '
p12
sS'vars'
p13
(lp14
sg5
S'alexa'
p15
sS'msg'
p16
Vmessage content
p17
sS'type'
p18
S'message'
p19
sS'options'
p20
(lp21
S'execute'
p22
aS'read'
p23
asbasS'ConnectionList'
p24
(lp25
sb.