(iAlexaHandler.Block.BlockChain
BlockChain
p0
(dp1
S'session'
p2
S'alexa'
p3
sS'name'
p4
g3
sS'BlockList'
p5
(lp6
(iAlexaHandler.Block.HistogramBlock
HistogramBlock
p7
(dp8
S'cache_path'
p9
S''
p10
sg2
S'alexa'
p11
sS'type'
p12
S'histogram'
p13
sg4
S'plot.png'
p14
sS'options'
p15
(lp16
S'plot'
p17
aS'show'
p18
asba(iAlexaHandler.Block.MessageBlock
MessageBlock
p19
(dp20
S'msg'
p21
Vmessage content
p22
sg2
S'alexa'
p23
sg12
S'message'
p24
sg4
S'[user] '
p25
sg15
(lp26
S'execute'
p27
aS'read'
p28
asba(iAlexaHandler.Block.HistogramBlock
HistogramBlock
p29
(dp30
g9
g10
sg2
g23
sg12
S'histogram'
p31
sg4
S'plot.png'
p32
sg15
(lp33
S'plot'
p34
aS'show'
p35
asba(iAlexaHandler.Block.MessageBlock
MessageBlock
p36
(dp37
g21
Vmessage content
p38
sg2
g23
sg12
g24
sg4
g25
sg15
(lp39
g27
ag28
asba(iAlexaHandler.Block.ImageBlock
ImageBlock
p40
(dp41
g4
S'test.jpg'
p42
sS'cached'
p43
I01
sg2
g23
sg12
S'image'
p44
sg15
(lp45
g35
asS'img_path'
p46
S'/home/alexa_server/Alexa_Server/cache/alexa/test.jpg'
p47
sbasS'ConnectionList'
p48
(lp49
sb.