(iAlexaHandler.Block.BlockChain
BlockChain
p0
(dp1
S'session'
p2
S'alexa'
p3
sS'name'
p4
g3
sS'BlockList'
p5
(lp6
(iAlexaHandler.Block.HistogramBlock
HistogramBlock
p7
(dp8
S'cache_path'
p9
S''
p10
sg2
S'alexa'
p11
sS'type'
p12
S'histogram'
p13
sg4
S'plot.png'
p14
sS'options'
p15
(lp16
S'plot'
p17
asba(iAlexaHandler.Block.ImageBlock
ImageBlock
p18
(dp19
g4
S'test.jpg'
p20
sS'cached'
p21
I01
sg2
g11
sg12
S'image'
p22
sg15
(lp23
S'show'
p24
asS'img_path'
p25
S'/home/ignacio/Alexa_Server/cache/alexa/test.jpg'
p26
sba(iAlexaHandler.Block.HistogramBlock
HistogramBlock
p27
(dp28
g9
g10
sg2
g11
sg12
g13
sg4
g14
sg15
(lp29
g17
asbasS'ConnectionList'
p30
(lp31
sb.