(iAlexaHandler.Block.BlockChain
BlockChain
p0
(dp1
S'session'
p2
S'alexa'
p3
sS'name'
p4
g3
sS'BlockList'
p5
(lp6
(iAlexaHandler.Block.HistogramBlock
HistogramBlock
p7
(dp8
S'cache_path'
p9
S''
p10
sg2
S'alexa'
p11
sS'type'
p12
S'histogram'
p13
sg4
S'plot.png'
p14
sS'options'
p15
(lp16
S'plot'
p17
aS'show'
p18
aS'export'
p19
asbasS'ConnectionList'
p20
(lp21
sb.