(iAlexaHandler.Block.BlockChain
BlockChain
p0
(dp1
S'varList'
p2
(lp3
(lp4
S'data table'
p5
aa(lp6
a(lp7
S'test.jpg'
p8
aS'fake_var'
p9
aa(lp10
g8
ag9
aa(lp11
g5
aa(lp12
g8
ag9
aa(lp13
a(lp14
a(lp15
a(lp16
S'data table'
p17
aasS'session'
p18
S'alexa'
p19
sS'name'
p20
g19
sS'BlockList'
p21
(lp22
(iAlexaHandler.Block.HistogramBlock
HistogramBlock
p23
(dp24
g20
S'plot.png'
p25
sS'vars'
p26
(lp27
g5
asS'cache_path'
p28
S''
p29
sg18
S'alexa'
p30
sS'type'
p31
S'histogram'
p32
sS'options'
p33
(lp34
S'plot'
p35
aS'show'
p36
asba(iAlexaHandler.Block.MessageBlock
MessageBlock
p37
(dp38
g20
S'[user] '
p39
sg26
(lp40
sg18
g30
sS'msg'
p41
Vmessage content
p42
sg31
S'message'
p43
sg33
(lp44
S'execute'
p45
aS'read'
p46
asba(iAlexaHandler.Block.ImageBlock
ImageBlock
p47
(dp48
g20
g8
sg26
(lp49
g8
ag9
asS'cached'
p50
I01
sg18
g30
sg31
S'image'
p51
sg33
(lp52
g36
asS'img_path'
p53
S'/home/alexa_server/Alexa_Server/cache/alexa/test.jpg'
p54
sba(iAlexaHandler.Block.ImageBlock
ImageBlock
p55
(dp56
g20
g8
sg26
(lp57
g8
ag9
asg50
I01
sg18
g30
sg31
g51
sg33
(lp58
g36
asg53
S'/home/alexa_server/Alexa_Server/cache/alexa/test.jpg'
p59
sba(iAlexaHandler.Block.HistogramBlock
HistogramBlock
p60
(dp61
g20
g25
sg26
(lp62
g5
asg28
g29
sg18
g30
sg31
g32
sg33
(lp63
g35
ag36
asba(iAlexaHandler.Block.ImageBlock
ImageBlock
p64
(dp65
g20
g8
sg26
(lp66
g8
ag9
asg50
I01
sg18
g30
sg31
g51
sg33
(lp67
g36
asg53
S'/home/alexa_server/Alexa_Server/cache/alexa/test.jpg'
p68
sba(iAlexaHandler.Block.MessageBlock
MessageBlock
p69
(dp70
g20
g39
sg26
(lp71
sg18
g30
sg41
Vmessage content
p72
sg31
g43
sg33
(lp73
g45
ag46
asba(iAlexaHandler.Block.MessageBlock
MessageBlock
p74
(dp75
g20
S'[user] '
p76
sg26
(lp77
sg18
S'alexa'
p78
sg41
Vmessage content
p79
sg31
S'message'
p80
sg33
(lp81
S'execute'
p82
aS'read'
p83
asba(iAlexaHandler.Block.MessageBlock
MessageBlock
p84
(dp85
g20
g76
sg26
(lp86
sg18
g78
sg41
Vmessage content
p87
sg31
g80
sg33
(lp88
g82
ag83
asba(iAlexaHandler.Block.HistogramBlock
HistogramBlock
p89
(dp90
g20
S'plot.png'
p91
sg26
(lp92
g17
asg28
g29
sg18
g78
sg31
S'histogram'
p93
sg33
(lp94
S'plot'
p95
aS'show'
p96
asbasS'ConnectionList'
p97
(lp98
sb.