(iAlexaHandler.Block.BlockChain
BlockChain
p0
(dp1
S'session'
p2
S'alexa'
p3
sS'name'
p4
g3
sS'BlockList'
p5
(lp6
(iAlexaHandler.Block.MessageBlock
MessageBlock
p7
(dp8
S'msg'
p9
Vmsg
p10
sg2
S'alexa'
p11
sS'type'
p12
S'message'
p13
sg4
S'[user] daphne.response.jpEARkBFvv!XQcqbrECgZ'
p14
sba(iAlexaHandler.Block.ImageBlock
ImageBlock
p15
(dp16
S'cached'
p17
I01
sg2
g11
sg12
S'image'
p18
sg4
S'test.jpg'
p19
sS'img_path'
p20
S'/home/alexa_server/Alexa_Server/cache/alexa/test.jpg'
p21
sba(iAlexaHandler.Block.MessageBlock
MessageBlock
p22
(dp23
g9
Vmsg
p24
sg2
g11
sg12
g13
sg4
S'[user] daphne.response.jpEARkBFvv!XQcqbrECgZ'
p25
sba(iAlexaHandler.Block.ImageBlock
ImageBlock
p26
(dp27
g17
I01
sg2
g11
sg12
g18
sg4
g19
sg20
S'/home/alexa_server/Alexa_Server/cache/alexa/test.jpg'
p28
sba(iAlexaHandler.Block.MessageBlock
MessageBlock
p29
(dp30
g9
Vmsg
p31
sg2
g11
sg12
g13
sg4
S'[user] daphne.response.jpEARkBFvv!XQcqbrECgZ'
p32
sba(iAlexaHandler.Block.MessageBlock
MessageBlock
p33
(dp34
g9
Vmsg
p35
sg2
g11
sg12
g13
sg4
S'[user] daphne.response.jpEARkBFvv!XQcqbrECgZ'
p36
sbasS'ConnectionList'
p37
(lp38
sb.