(iAlexaHandler.Block.BlockChain
BlockChain
p0
(dp1
S'session'
p2
S'alexa'
p3
sS'name'
p4
g3
sS'BlockList'
p5
(lp6
(iAlexaHandler.Block.MessageBlock
MessageBlock
p7
(dp8
S'msg'
p9
Vmessage content
p10
sg2
S'alexa'
p11
sS'type'
p12
S'message'
p13
sg4
S'[user] '
p14
sS'options'
p15
(lp16
S'execute'
p17
aS'read'
p18
asba(iAlexaHandler.Block.MessageBlock
MessageBlock
p19
(dp20
g9
Vmessage content
p21
sg2
g11
sg12
g13
sg4
g14
sg15
(lp22
g17
ag18
asba(iAlexaHandler.Block.ImageBlock
ImageBlock
p23
(dp24
g4
S'test.jpg'
p25
sS'cached'
p26
I01
sg2
g11
sg12
S'image'
p27
sg15
(lp28
S'show'
p29
asS'img_path'
p30
S'/home/alexa_server/Alexa_Server/cache/alexa/test.jpg'
p31
sbasS'ConnectionList'
p32
(lp33
sb.