(iAlexaHandler.Block.BlockChain
BlockChain
p0
(dp1
S'session'
p2
S'alexa'
p3
sS'name'
p4
g3
sS'BlockList'
p5
(lp6
(iAlexaHandler.Block.HistogramBlock
HistogramBlock
p7
(dp8
g4
S'plot.png'
p9
sS'vars'
p10
(lp11
S'data table'
p12
asS'cache_path'
p13
S''
p14
sg2
S'alexa'
p15
sS'type'
p16
S'histogram'
p17
sS'options'
p18
(lp19
S'plot'
p20
aS'show'
p21
asba(iAlexaHandler.Block.ImageBlock
ImageBlock
p22
(dp23
g4
S'test.jpg'
p24
sg10
(lp25
g24
aS'fake_var'
p26
asS'cached'
p27
I01
sg2
g15
sg16
S'image'
p28
sg18
(lp29
g21
asS'img_path'
p30
S'/home/alexa_server/Alexa_Server/cache/alexa/test.jpg'
p31
sba(iAlexaHandler.Block.MessageBlock
MessageBlock
p32
(dp33
S'msg'
p34
Vmessage content
p35
sg2
S'alexa'
p36
sg16
S'message'
p37
sg4
S'[user] '
p38
sg18
(lp39
S'execute'
p40
aS'read'
p41
asbasS'ConnectionList'
p42
(lp43
sb.