(iAlexaHandler.Block.BlockChain
BlockChain
p0
(dp1
S'varList'
p2
(lp3
(lp4
a(lp5
S'data table'
p6
aa(lp7
a(lp8
a(lp9
a(lp10
S'test.jpg'
p11
aS'fake_var'
p12
aasS'session'
p13
S'alexa'
p14
sS'name'
p15
g14
sS'BlockList'
p16
(lp17
(iAlexaHandler.Block.MessageBlock
MessageBlock
p18
(dp19
g15
S'[user] '
p20
sS'vars'
p21
(lp22
sg13
S'alexa'
p23
sS'msg'
p24
Vmessage content
p25
sS'type'
p26
S'message'
p27
sS'options'
p28
(lp29
S'execute'
p30
aS'read'
p31
asba(iAlexaHandler.Block.HistogramBlock
HistogramBlock
p32
(dp33
g15
S'plot.png'
p34
sg21
(lp35
g6
asS'cache_path'
p36
S''
p37
sg13
g23
sg26
S'histogram'
p38
sg28
(lp39
S'plot'
p40
aS'show'
p41
asba(iAlexaHandler.Block.MessageBlock
MessageBlock
p42
(dp43
g15
g20
sg21
(lp44
sg13
g23
sg24
Vmessage content
p45
sg26
g27
sg28
(lp46
g30
ag31
asba(iAlexaHandler.Block.MessageBlock
MessageBlock
p47
(dp48
g15
g20
sg21
(lp49
sg13
g23
sg24
Vmessage content
p50
sg26
g27
sg28
(lp51
g30
ag31
asba(iAlexaHandler.Block.MessageBlock
MessageBlock
p52
(dp53
g15
g20
sg21
(lp54
sg13
g23
sg24
Vmessage content
p55
sg26
g27
sg28
(lp56
g30
ag31
asba(iAlexaHandler.Block.ImageBlock
ImageBlock
p57
(dp58
g15
g11
sg21
(lp59
g11
ag12
asS'cached'
p60
I01
sg13
g23
sg26
S'image'
p61
sg28
(lp62
g41
asS'img_path'
p63
S'/home/alexa_server/Alexa_Server/cache/alexa/test.jpg'
p64
sbasS'ConnectionList'
p65
(lp66
sb.