(iAlexaHandler.Block.BlockChain
BlockChain
p0
(dp1
S'session'
p2
S'alexa'
p3
sS'name'
p4
g3
sS'BlockList'
p5
(lp6
(iAlexaHandler.Block.MessageBlock
MessageBlock
p7
(dp8
S'msg'
p9
Vmsg
p10
sg2
S'alexa'
p11
sS'type'
p12
S'message'
p13
sg4
S'[user] daphne.response.UxKBsooYeG!obvzvehPhR'
p14
sba(iAlexaHandler.Block.ImageBlock
ImageBlock
p15
(dp16
S'cached'
p17
I01
sg2
g11
sg12
S'image'
p18
sg4
S'test.jpg'
p19
sS'img_path'
p20
S'/home/alexa_server/Alexa_Server/cache/alexa/test.jpg'
p21
sba(iAlexaHandler.Block.MessageBlock
MessageBlock
p22
(dp23
g9
Vmsg
p24
sg2
g11
sg12
g13
sg4
S'[user] daphne.response.UxKBsooYeG!obvzvehPhR'
p25
sbasS'ConnectionList'
p26
(lp27
sb.