(iAlexaHandler.Block.BlockChain
BlockChain
p0
(dp1
S'varList'
p2
(lp3
(lp4
S'data table'
p5
aa(lp6
a(lp7
a(lp8
S'test.jpg'
p9
aS'fake_var'
p10
aa(lp11
a(lp12
a(lp13
S'test.jpg'
p14
aS'fake_var'
p15
aa(lp16
g14
ag15
aa(lp17
g14
ag15
aa(lp18
g14
ag15
aa(lp19
g14
ag15
aa(lp20
g14
ag15
aa(lp21
g14
ag15
aa(lp22
g14
ag15
aa(lp23
g14
ag15
aa(lp24
S'data table'
p25
aa(lp26
a(lp27
S'data table'
p28
aa(lp29
a(lp30
S'data table'
p31
aa(lp32
S'test.jpg'
p33
aS'fake_var'
p34
aa(lp35
S'data table'
p36
aa(lp37
S'data table'
p38
aa(lp39
g38
aa(lp40
g38
aa(lp41
a(lp42
a(lp43
S'data table'
p44
aa(lp45
S'test.jpg'
p46
aS'fake_var'
p47
aa(lp48
g46
ag47
aa(lp49
g46
ag47
aa(lp50
g46
ag47
aa(lp51
g46
ag47
aa(lp52
g46
ag47
aa(lp53
g46
ag47
aa(lp54
g46
ag47
aa(lp55
g46
ag47
aa(lp56
g46
ag47
aa(lp57
a(lp58
g44
aa(lp59
g44
aa(lp60
a(lp61
S'data table'
p62
aa(lp63
a(lp64
S'test.jpg'
p65
aS'fake_var'
p66
aa(lp67
g62
aa(lp68
a(lp69
g65
ag66
aa(lp70
g65
ag66
aa(lp71
g65
ag66
aa(lp72
g62
aa(lp73
a(lp74
g65
ag66
aa(lp75
g62
aa(lp76
a(lp77
g65
ag66
aa(lp78
a(lp79
S'data table'
p80
aa(lp81
a(lp82
S'test.jpg'
p83
aS'fake_var'
p84
aa(lp85
a(lp86
a(lp87
a(lp88
a(lp89
a(lp90
a(lp91
a(lp92
a(lp93
a(lp94
a(lp95
a(lp96
a(lp97
a(lp98
a(lp99
a(lp100
a(lp101
a(lp102
a(lp103
a(lp104
a(lp105
a(lp106
a(lp107
a(lp108
a(lp109
a(lp110
a(lp111
a(lp112
a(lp113
a(lp114
a(lp115
a(lp116
a(lp117
a(lp118
a(lp119
a(lp120
a(lp121
a(lp122
a(lp123
a(lp124
a(lp125
a(lp126
a(lp127
a(lp128
a(lp129
a(lp130
a(lp131
a(lp132
a(lp133
a(lp134
a(lp135
a(lp136
a(lp137
a(lp138
S'test.jpg'
p139
aS'fake_var'
p140
aa(lp141
S'data table'
p142
aa(lp143
g142
aa(lp144
a(lp145
a(lp146
a(lp147
S'data table'
p148
aa(lp149
g148
aa(lp150
S'data table'
p151
aa(lp152
g151
aa(lp153
S'test.jpg'
p154
aS'fake_var'
p155
aa(lp156
g154
ag155
aa(lp157
g154
ag155
aa(lp158
g154
ag155
aa(lp159
g154
ag155
aa(lp160
g154
ag155
aa(lp161
g154
ag155
aa(lp162
g154
ag155
aa(lp163
g151
aa(lp164
a(lp165
g154
ag155
aa(lp166
a(lp167
S'data table'
p168
aa(lp169
S'test.jpg'
p170
aS'fake_var'
p171
aa(lp172
g170
ag171
aa(lp173
a(lp174
a(lp175
a(lp176
a(lp177
a(lp178
a(lp179
S'data table'
p180
aa(lp181
S'data table'
p182
aa(lp183
a(lp184
S'data table'
p185
aa(lp186
a(lp187
a(lp188
a(lp189
a(lp190
a(lp191
a(lp192
a(lp193
a(lp194
a(lp195
a(lp196
a(lp197
a(lp198
a(lp199
a(lp200
a(lp201
a(lp202
a(lp203
S'data table'
p204
aa(lp205
a(lp206
a(lp207
a(lp208
a(lp209
a(lp210
a(lp211
a(lp212
a(lp213
a(lp214
a(lp215
a(lp216
a(lp217
a(lp218
a(lp219
a(lp220
a(lp221
a(lp222
a(lp223
a(lp224
a(lp225
a(lp226
a(lp227
a(lp228
a(lp229
a(lp230
a(lp231
a(lp232
a(lp233
a(lp234
a(lp235
a(lp236
a(lp237
a(lp238
a(lp239
a(lp240
a(lp241
a(lp242
a(lp243
a(lp244
a(lp245
a(lp246
a(lp247
a(lp248
a(lp249
a(lp250
a(lp251
a(lp252
a(lp253
a(lp254
a(lp255
a(lp256
a(lp257
S'data table'
p258
aa(lp259
a(lp260
a(lp261
a(lp262
a(lp263
a(lp264
S'test.jpg'
p265
aS'fake_var'
p266
aa(lp267
S'data table'
p268
aa(lp269
g265
ag266
aa(lp270
g268
aa(lp271
a(lp272
g265
ag266
aa(lp273
g265
ag266
aa(lp274
g265
ag266
aa(lp275
a(lp276
a(lp277
S'test.jpg'
p278
aS'fake_var'
p279
aa(lp280
S'data table'
p281
aa(lp282
a(lp283
g281
aa(lp284
asS'session'
p285
S'alexa'
p286
sS'name'
p287
g286
sS'BlockList'
p288
(lp289
(iAlexaHandler.Block.MessageBlock
MessageBlock
p290
(dp291
g287
S'[user] '
p292
sS'vars'
p293
(lp294
sg285
S'alexa'
p295
sS'msg'
p296
Vmessage content
p297
sS'type'
p298
S'message'
p299
sS'options'
p300
(lp301
S'execute'
p302
aS'read'
p303
asba(iAlexaHandler.Block.ImageBlock
ImageBlock
p304
(dp305
g287
g278
sg293
(lp306
g278
ag279
asS'cached'
p307
I01
sg285
g295
sg298
S'image'
p308
sg300
(lp309
S'show'
p310
asS'img_path'
p311
S'/home/alexa_server/Alexa_Server/cache/alexa/test.jpg'
p312
sba(iAlexaHandler.Block.HistogramBlock
HistogramBlock
p313
(dp314
g287
S'plot.png'
p315
sg293
(lp316
g281
asS'cache_path'
p317
S''
p318
sg285
g295
sg298
S'histogram'
p319
sg300
(lp320
S'plot'
p321
ag310
asba(iAlexaHandler.Block.MessageBlock
MessageBlock
p322
(dp323
g287
g292
sg293
(lp324
sg285
g295
sg296
Vmessage content
p325
sg298
g299
sg300
(lp326
g302
ag303
asba(iAlexaHandler.Block.HistogramBlock
HistogramBlock
p327
(dp328
g287
g315
sg293
(lp329
g281
asg317
g318
sg285
g295
sg298
g319
sg300
(lp330
g321
ag310
asba(iAlexaHandler.Block.MessageBlock
MessageBlock
p331
(dp332
g287
S'[user] '
p333
sg293
(lp334
sg285
S'alexa'
p335
sg296
Vmessage content
p336
sg298
S'message'
p337
sg300
(lp338
S'execute'
p339
aS'read'
p340
asbasS'ConnectionList'
p341
(lp342
sb.