(iAlexaHandler.Block.BlockChain
BlockChain
p0
(dp1
S'varList'
p2
(lp3
(lp4
S'data table'
p5
aa(lp6
g5
aa(lp7
S'test.jpg'
p8
aS'fake_var'
p9
aasS'session'
p10
S'alexa'
p11
sS'name'
p12
g11
sS'BlockList'
p13
(lp14
(iAlexaHandler.Block.HistogramBlock
HistogramBlock
p15
(dp16
g12
S'plot.png'
p17
sS'vars'
p18
(lp19
g5
asS'cache_path'
p20
S''
p21
sg10
S'alexa'
p22
sS'type'
p23
S'histogram'
p24
sS'options'
p25
(lp26
S'plot'
p27
aS'show'
p28
aS'export'
p29
asba(iAlexaHandler.Block.HistogramBlock
HistogramBlock
p30
(dp31
g12
g17
sg18
(lp32
g5
asg20
g21
sg10
g22
sg23
g24
sg25
(lp33
g27
ag28
ag29
asba(iAlexaHandler.Block.ImageBlock
ImageBlock
p34
(dp35
g12
g8
sg18
(lp36
g8
ag9
asS'cached'
p37
I01
sg10
S'alexa'
p38
sg23
S'image'
p39
sg25
(lp40
S'show'
p41
asS'img_path'
p42
S'/home/ignacio/Alexa_Server/cache/alexa/test.jpg'
p43
sbasS'ConnectionList'
p44
(lp45
sb.