(iAlexaHandler.Block.BlockChain
BlockChain
p0
(dp1
S'varList'
p2
(lp3
(lp4
a(lp5
S'test.jpg'
p6
aS'fake_var'
p7
aa(lp8
S'data table'
p9
aa(lp10
g9
aa(lp11
S'test.jpg'
p12
aS'fake_var'
p13
aasS'session'
p14
S'alexa'
p15
sS'name'
p16
g15
sS'BlockList'
p17
(lp18
(iAlexaHandler.Block.MessageBlock
MessageBlock
p19
(dp20
g16
S'[user] '
p21
sS'vars'
p22
(lp23
sg14
S'alexa'
p24
sS'msg'
p25
Vmessage content
p26
sS'type'
p27
S'message'
p28
sS'options'
p29
(lp30
S'execute'
p31
aS'read'
p32
asba(iAlexaHandler.Block.ImageBlock
ImageBlock
p33
(dp34
g16
g6
sg22
(lp35
g6
ag7
asS'cached'
p36
I01
sg14
g24
sg27
S'image'
p37
sg29
(lp38
S'show'
p39
asS'img_path'
p40
S'/home/alexa_server/Alexa_Server/cache/alexa/test.jpg'
p41
sba(iAlexaHandler.Block.HistogramBlock
HistogramBlock
p42
(dp43
g16
S'plot.png'
p44
sg22
(lp45
g9
asS'cache_path'
p46
S''
p47
sg14
g24
sg27
S'histogram'
p48
sg29
(lp49
S'plot'
p50
ag39
asba(iAlexaHandler.Block.HistogramBlock
HistogramBlock
p51
(dp52
g16
g44
sg22
(lp53
g9
asg46
g47
sg14
g24
sg27
g48
sg29
(lp54
g50
ag39
asba(iAlexaHandler.Block.ImageBlock
ImageBlock
p55
(dp56
g16
g12
sg22
(lp57
g12
ag13
asg36
I01
sg14
S'alexa'
p58
sg27
S'image'
p59
sg29
(lp60
S'show'
p61
asg40
S'/home/alexa_server/Alexa_Server/cache/alexa/test.jpg'
p62
sbasS'ConnectionList'
p63
(lp64
sb.