(iAlexaHandler.Block.BlockChain
BlockChain
p0
(dp1
S'session'
p2
S'alexa'
p3
sS'name'
p4
g3
sS'BlockList'
p5
(lp6
(iAlexaHandler.Block.MessageBlock
MessageBlock
p7
(dp8
S'msg'
p9
Vmsg
p10
sg2
S'alexa'
p11
sS'type'
p12
S'message'
p13
sg4
S'[user] daphne.response.fEfBeDWEMD!QUbldLPLzs'
p14
sba(iAlexaHandler.Block.MessageBlock
MessageBlock
p15
(dp16
g9
Vmsg
p17
sg2
g11
sg12
g13
sg4
S'[user] daphne.response.fEfBeDWEMD!QUbldLPLzs'
p18
sba(iAlexaHandler.Block.ImageBlock
ImageBlock
p19
(dp20
S'cached'
p21
I01
sg2
S'alexa'
p22
sg12
S'image'
p23
sg4
S'test.jpg'
p24
sS'img_path'
p25
S'/home/alexa_server/Alexa_Server/cache/alexa/test.jpg'
p26
sba(iAlexaHandler.Block.MessageBlock
MessageBlock
p27
(dp28
g9
Vmsg
p29
sg2
g22
sg12
S'message'
p30
sg4
S'[user] daphne.response.fEfBeDWEMD!QUbldLPLzs'
p31
sba(iAlexaHandler.Block.ImageBlock
ImageBlock
p32
(dp33
g21
I01
sg2
g22
sg12
g23
sg4
g24
sg25
S'/home/alexa_server/Alexa_Server/cache/alexa/test.jpg'
p34
sbasS'ConnectionList'
p35
(lp36
sb.