(iAlexaHandler.Block.BlockChain
BlockChain
p0
(dp1
S'session'
p2
S'alexa'
p3
sS'name'
p4
g3
sS'BlockList'
p5
(lp6
(iAlexaHandler.Block.MessageBlock
MessageBlock
p7
(dp8
S'msg'
p9
Vmessage content
p10
sg2
S'alexa'
p11
sS'type'
p12
S'message'
p13
sg4
S'[user] '
p14
sS'options'
p15
(lp16
S'execute'
p17
aS'read'
p18
asba(iAlexaHandler.Block.HistogramBlock
HistogramBlock
p19
(dp20
S'cache_path'
p21
S''
p22
sg2
g11
sg12
S'histogram'
p23
sg4
S'plot.png'
p24
sg15
(lp25
S'plot'
p26
aS'show'
p27
asba(iAlexaHandler.Block.ImageBlock
ImageBlock
p28
(dp29
g4
S'test.jpg'
p30
sS'cached'
p31
I01
sg2
g11
sg12
S'image'
p32
sg15
(lp33
g27
asS'img_path'
p34
S'/home/alexa_server/Alexa_Server/cache/alexa/test.jpg'
p35
sba(iAlexaHandler.Block.HistogramBlock
HistogramBlock
p36
(dp37
g21
g22
sg2
g11
sg12
g23
sg4
g24
sg15
(lp38
g26
ag27
asbasS'ConnectionList'
p39
(lp40
sb.