(iAlexaHandler.Block.BlockChain
BlockChain
p0
(dp1
S'session'
p2
S'alexa'
p3
sS'name'
p4
g3
sS'BlockList'
p5
(lp6
(iAlexaHandler.Block.MessageBlock
MessageBlock
p7
(dp8
S'msg'
p9
Vmessage content
p10
sg2
S'alexa'
p11
sS'type'
p12
S'message'
p13
sg4
S'[user] '
p14
sS'options'
p15
(lp16
S'execute'
p17
aS'read'
p18
asba(iAlexaHandler.Block.MessageBlock
MessageBlock
p19
(dp20
g9
Vmessage content
p21
sg2
g11
sg12
g13
sg4
g14
sg15
(lp22
g17
ag18
asba(iAlexaHandler.Block.ImageBlock
ImageBlock
p23
(dp24
g4
S'test.jpg'
p25
sS'cached'
p26
I01
sg2
g11
sg12
S'image'
p27
sg15
(lp28
S'show'
p29
asS'img_path'
p30
S'/home/alexa_server/Alexa_Server/cache/alexa/test.jpg'
p31
sba(iAlexaHandler.Block.MessageBlock
MessageBlock
p32
(dp33
g9
Vmessage content
p34
sg2
g11
sg12
g13
sg4
g14
sg15
(lp35
g17
ag18
asba(iAlexaHandler.Block.ImageBlock
ImageBlock
p36
(dp37
g4
g25
sg26
I01
sg2
g11
sg12
g27
sg15
(lp38
g29
asg30
S'/home/alexa_server/Alexa_Server/cache/alexa/test.jpg'
p39
sba(iAlexaHandler.Block.MessageBlock
MessageBlock
p40
(dp41
g9
Vmessage content
p42
sg2
S'alexa'
p43
sg12
S'message'
p44
sg4
S'[user] '
p45
sg15
(lp46
S'execute'
p47
aS'read'
p48
asba(iAlexaHandler.Block.HistogramBlock
HistogramBlock
p49
(dp50
g2
S'alexa'
p51
sg12
S'histogram'
p52
sg4
S'Histogram'
p53
sg15
(lp54
S'plot'
p55
asba(iAlexaHandler.Block.HistogramBlock
HistogramBlock
p56
(dp57
S'cache_path'
p58
S''
p59
sg2
S'alexa'
p60
sg12
S'histogram'
p61
sg4
S'Histogram'
p62
sg15
(lp63
S'plot'
p64
asbasS'ConnectionList'
p65
(lp66
sb.