(iAlexaHandler.Block.BlockChain
BlockChain
p0
(dp1
S'session'
p2
S'alexa'
p3
sS'name'
p4
g3
sS'BlockList'
p5
(lp6
(iAlexaHandler.Block.MessageBlock
MessageBlock
p7
(dp8
S'msg'
p9
Vmsg
p10
sg2
S'alexa'
p11
sS'type'
p12
S'message'
p13
sg4
S'[user] daphne.response.nPGVObbJON!HEsWpQBOJD'
p14
sba(iAlexaHandler.Block.MessageBlock
MessageBlock
p15
(dp16
g9
Vmsg
p17
sg2
g11
sg12
g13
sg4
S'[user] daphne.response.nPGVObbJON!HEsWpQBOJD'
p18
sba(iAlexaHandler.Block.MessageBlock
MessageBlock
p19
(dp20
g9
Vmsg
p21
sg2
g11
sg12
g13
sg4
S'[user] daphne.response.nPGVObbJON!HEsWpQBOJD'
p22
sba(iAlexaHandler.Block.ImageBlock
ImageBlock
p23
(dp24
S'cached'
p25
I01
sg2
g11
sg12
S'image'
p26
sg4
S'test.jpg'
p27
sS'img_path'
p28
S'/home/alexa_server/Alexa_Server/cache/alexa/test.jpg'
p29
sba(iAlexaHandler.Block.MessageBlock
MessageBlock
p30
(dp31
g9
Vmsg
p32
sg2
g11
sg12
g13
sg4
S'[user] daphne.response.nPGVObbJON!HEsWpQBOJD'
p33
sba(iAlexaHandler.Block.MessageBlock
MessageBlock
p34
(dp35
g9
Vmsg
p36
sg2
g11
sg12
g13
sg4
S'[user] daphne.response.nPGVObbJON!HEsWpQBOJD'
p37
sbasS'ConnectionList'
p38
(lp39
sb.