(iAlexaHandler.Block.BlockChain
BlockChain
p0
(dp1
S'session'
p2
S'alexa'
p3
sS'name'
p4
g3
sS'BlockList'
p5
(lp6
(iAlexaHandler.Block.MessageBlock
MessageBlock
p7
(dp8
S'msg'
p9
Vmsg
p10
sg2
S'alexa'
p11
sS'type'
p12
S'message'
p13
sg4
S'[user] daphne.response.sXWMIVgrlm!cPMgkWxSbM'
p14
sba(iAlexaHandler.Block.MessageBlock
MessageBlock
p15
(dp16
g9
Vmsg
p17
sg2
g11
sg12
g13
sg4
S'[user] daphne.response.sXWMIVgrlm!cPMgkWxSbM'
p18
sba(iAlexaHandler.Block.ImageBlock
ImageBlock
p19
(dp20
S'cached'
p21
I01
sg2
g11
sg12
S'image'
p22
sg4
S'test.jpg'
p23
sS'img_path'
p24
S'/home/alexa_server/Alexa_Server/cache/alexa/test.jpg'
p25
sba(iAlexaHandler.Block.ImageBlock
ImageBlock
p26
(dp27
g21
I01
sg2
S'alexa'
p28
sg12
S'image'
p29
sg4
S'test.jpg'
p30
sg24
S'/home/alexa_server/Alexa_Server/cache/alexa/test.jpg'
p31
sbasS'ConnectionList'
p32
(lp33
sb.