(iAlexaHandler.Block.BlockChain
BlockChain
p0
(dp1
S'varList'
p2
(lp3
(lp4
S'data table'
p5
aa(lp6
a(lp7
a(lp8
S'test.jpg'
p9
aS'fake_var'
p10
aa(lp11
a(lp12
a(lp13
S'test.jpg'
p14
aS'fake_var'
p15
aa(lp16
g14
ag15
aa(lp17
g14
ag15
aa(lp18
g14
ag15
aa(lp19
g14
ag15
aa(lp20
g14
ag15
aa(lp21
g14
ag15
aa(lp22
g14
ag15
aa(lp23
g14
ag15
aa(lp24
S'data table'
p25
aa(lp26
a(lp27
S'data table'
p28
aa(lp29
a(lp30
S'data table'
p31
aa(lp32
S'test.jpg'
p33
aS'fake_var'
p34
aa(lp35
S'data table'
p36
aa(lp37
S'data table'
p38
aa(lp39
g38
aa(lp40
g38
aa(lp41
a(lp42
a(lp43
S'data table'
p44
aa(lp45
S'test.jpg'
p46
aS'fake_var'
p47
aa(lp48
g46
ag47
aa(lp49
g46
ag47
aa(lp50
g46
ag47
aa(lp51
g46
ag47
aa(lp52
g46
ag47
aa(lp53
g46
ag47
aa(lp54
g46
ag47
aa(lp55
g46
ag47
aa(lp56
g46
ag47
aa(lp57
a(lp58
g44
aa(lp59
g44
aa(lp60
a(lp61
S'data table'
p62
aa(lp63
a(lp64
S'test.jpg'
p65
aS'fake_var'
p66
aa(lp67
g62
aa(lp68
a(lp69
g65
ag66
aa(lp70
g65
ag66
aa(lp71
g65
ag66
aa(lp72
g62
aa(lp73
a(lp74
g65
ag66
aa(lp75
g62
aa(lp76
a(lp77
g65
ag66
aa(lp78
a(lp79
S'data table'
p80
aa(lp81
a(lp82
S'test.jpg'
p83
aS'fake_var'
p84
aa(lp85
a(lp86
a(lp87
a(lp88
a(lp89
a(lp90
a(lp91
a(lp92
a(lp93
a(lp94
a(lp95
a(lp96
a(lp97
a(lp98
a(lp99
a(lp100
a(lp101
a(lp102
a(lp103
a(lp104
a(lp105
a(lp106
a(lp107
a(lp108
a(lp109
a(lp110
a(lp111
a(lp112
a(lp113
a(lp114
a(lp115
a(lp116
a(lp117
a(lp118
a(lp119
a(lp120
a(lp121
a(lp122
a(lp123
a(lp124
a(lp125
a(lp126
a(lp127
a(lp128
a(lp129
a(lp130
a(lp131
a(lp132
a(lp133
a(lp134
a(lp135
a(lp136
a(lp137
a(lp138
S'test.jpg'
p139
aS'fake_var'
p140
aa(lp141
S'data table'
p142
aa(lp143
g142
aa(lp144
a(lp145
a(lp146
a(lp147
S'data table'
p148
aa(lp149
g148
aa(lp150
S'data table'
p151
aa(lp152
g151
aa(lp153
S'test.jpg'
p154
aS'fake_var'
p155
aa(lp156
g154
ag155
aa(lp157
g154
ag155
aa(lp158
g154
ag155
aa(lp159
g154
ag155
aa(lp160
g154
ag155
aa(lp161
g154
ag155
aa(lp162
g154
ag155
aa(lp163
g151
aa(lp164
a(lp165
g154
ag155
aa(lp166
a(lp167
S'data table'
p168
aa(lp169
S'test.jpg'
p170
aS'fake_var'
p171
aa(lp172
g170
ag171
aa(lp173
a(lp174
a(lp175
a(lp176
a(lp177
a(lp178
a(lp179
S'data table'
p180
aa(lp181
S'data table'
p182
aa(lp183
a(lp184
S'data table'
p185
aa(lp186
a(lp187
a(lp188
a(lp189
a(lp190
a(lp191
a(lp192
a(lp193
a(lp194
a(lp195
a(lp196
a(lp197
a(lp198
a(lp199
a(lp200
a(lp201
a(lp202
a(lp203
S'data table'
p204
aa(lp205
a(lp206
a(lp207
a(lp208
a(lp209
a(lp210
a(lp211
a(lp212
a(lp213
a(lp214
a(lp215
a(lp216
a(lp217
a(lp218
a(lp219
a(lp220
a(lp221
a(lp222
a(lp223
a(lp224
a(lp225
a(lp226
a(lp227
a(lp228
a(lp229
a(lp230
a(lp231
a(lp232
a(lp233
a(lp234
a(lp235
a(lp236
a(lp237
a(lp238
a(lp239
a(lp240
a(lp241
a(lp242
a(lp243
a(lp244
a(lp245
a(lp246
a(lp247
a(lp248
a(lp249
a(lp250
a(lp251
a(lp252
a(lp253
a(lp254
a(lp255
a(lp256
a(lp257
S'data table'
p258
aa(lp259
a(lp260
a(lp261
a(lp262
a(lp263
a(lp264
S'test.jpg'
p265
aS'fake_var'
p266
aa(lp267
S'data table'
p268
aa(lp269
g265
ag266
aa(lp270
g268
aa(lp271
a(lp272
g265
ag266
aa(lp273
g265
ag266
aa(lp274
g265
ag266
aa(lp275
a(lp276
a(lp277
S'test.jpg'
p278
aS'fake_var'
p279
aa(lp280
S'data table'
p281
aa(lp282
a(lp283
g281
aa(lp284
a(lp285
a(lp286
a(lp287
a(lp288
a(lp289
a(lp290
a(lp291
a(lp292
S'data table'
p293
aa(lp294
a(lp295
a(lp296
S'data table'
p297
aa(lp298
g297
aa(lp299
S'test.jpg'
p300
aS'fake_var'
p301
aasS'session'
p302
S'alexa'
p303
sS'name'
p304
g303
sS'BlockList'
p305
(lp306
(iAlexaHandler.Block.MessageBlock
MessageBlock
p307
(dp308
g304
S'[user] '
p309
sS'vars'
p310
(lp311
sg302
S'alexa'
p312
sS'msg'
p313
Vmessage content
p314
sS'type'
p315
S'message'
p316
sS'options'
p317
(lp318
S'execute'
p319
aS'read'
p320
asba(iAlexaHandler.Block.ImageBlock
ImageBlock
p321
(dp322
g304
g278
sg310
(lp323
g278
ag279
asS'cached'
p324
I01
sg302
g312
sg315
S'image'
p325
sg317
(lp326
S'show'
p327
asS'img_path'
p328
S'/home/alexa_server/Alexa_Server/cache/alexa/test.jpg'
p329
sba(iAlexaHandler.Block.HistogramBlock
HistogramBlock
p330
(dp331
g304
S'plot.png'
p332
sg310
(lp333
g281
asS'cache_path'
p334
S''
p335
sg302
g312
sg315
S'histogram'
p336
sg317
(lp337
S'plot'
p338
ag327
asba(iAlexaHandler.Block.MessageBlock
MessageBlock
p339
(dp340
g304
g309
sg310
(lp341
sg302
g312
sg313
Vmessage content
p342
sg315
g316
sg317
(lp343
g319
ag320
asba(iAlexaHandler.Block.HistogramBlock
HistogramBlock
p344
(dp345
g304
g332
sg310
(lp346
g281
asg334
g335
sg302
g312
sg315
g336
sg317
(lp347
g338
ag327
asba(iAlexaHandler.Block.MessageBlock
MessageBlock
p348
(dp349
g304
S'[user] '
p350
sg310
(lp351
sg302
S'alexa'
p352
sg313
Vmessage content
p353
sg315
S'message'
p354
sg317
(lp355
S'execute'
p356
aS'read'
p357
asba(iAlexaHandler.Block.MessageBlock
MessageBlock
p358
(dp359
g304
S'[user] '
p360
sg310
(lp361
sg302
S'alexa'
p362
sg313
Vmessage content
p363
sg315
S'message'
p364
sg317
(lp365
S'execute'
p366
aS'read'
p367
asba(iAlexaHandler.Block.MessageBlock
MessageBlock
p368
(dp369
g304
g360
sg310
(lp370
sg302
g362
sg313
Vmessage content
p371
sg315
g364
sg317
(lp372
g366
ag367
asba(iAlexaHandler.Block.MessageBlock
MessageBlock
p373
(dp374
g304
g360
sg310
(lp375
sg302
g362
sg313
Vmessage content
p376
sg315
g364
sg317
(lp377
g366
ag367
asba(iAlexaHandler.Block.MessageBlock
MessageBlock
p378
(dp379
g304
g360
sg310
(lp380
sg302
g362
sg313
Vmessage content
p381
sg315
g364
sg317
(lp382
g366
ag367
asba(iAlexaHandler.Block.MessageBlock
MessageBlock
p383
(dp384
g304
g360
sg310
(lp385
sg302
g362
sg313
Vmessage content
p386
sg315
g364
sg317
(lp387
g366
ag367
asba(iAlexaHandler.Block.MessageBlock
MessageBlock
p388
(dp389
g304
g360
sg310
(lp390
sg302
g362
sg313
Vmessage content
p391
sg315
g364
sg317
(lp392
g366
ag367
asba(iAlexaHandler.Block.MessageBlock
MessageBlock
p393
(dp394
g304
g360
sg310
(lp395
sg302
g362
sg313
Vmessage content
p396
sg315
g364
sg317
(lp397
g366
ag367
asba(iAlexaHandler.Block.HistogramBlock
HistogramBlock
p398
(dp399
g304
S'plot.png'
p400
sg310
(lp401
g293
asg334
g335
sg302
g362
sg315
S'histogram'
p402
sg317
(lp403
S'plot'
p404
aS'show'
p405
asba(iAlexaHandler.Block.MessageBlock
MessageBlock
p406
(dp407
g304
g360
sg310
(lp408
sg302
g362
sg313
Vmessage content
p409
sg315
g364
sg317
(lp410
g366
ag367
asba(iAlexaHandler.Block.MessageBlock
MessageBlock
p411
(dp412
g304
S'[user] '
p413
sg310
(lp414
sg302
S'alexa'
p415
sg313
Vmessage content
p416
sg315
S'message'
p417
sg317
(lp418
S'execute'
p419
aS'read'
p420
asba(iAlexaHandler.Block.HistogramBlock
HistogramBlock
p421
(dp422
g304
S'plot.png'
p423
sg310
(lp424
g297
asg334
g335
sg302
g415
sg315
S'histogram'
p425
sg317
(lp426
S'plot'
p427
aS'show'
p428
asba(iAlexaHandler.Block.HistogramBlock
HistogramBlock
p429
(dp430
g304
g423
sg310
(lp431
g297
asg334
g335
sg302
g415
sg315
g425
sg317
(lp432
g427
ag428
asba(iAlexaHandler.Block.ImageBlock
ImageBlock
p433
(dp434
g304
g300
sg310
(lp435
g300
ag301
asg324
I01
sg302
g415
sg315
S'image'
p436
sg317
(lp437
g428
asg328
S'/home/alexa_server/Alexa_Server/cache/alexa/test.jpg'
p438
sbasS'ConnectionList'
p439
(lp440
sb.