(iAlexaHandler.Block.BlockChain
BlockChain
p0
(dp1
S'varList'
p2
(lp3
(lp4
S'data table'
p5
aa(lp6
a(lp7
a(lp8
S'test.jpg'
p9
aS'fake_var'
p10
aasS'session'
p11
S'alexa'
p12
sS'name'
p13
g12
sS'BlockList'
p14
(lp15
(iAlexaHandler.Block.HistogramBlock
HistogramBlock
p16
(dp17
g13
S'plot.png'
p18
sS'vars'
p19
(lp20
g5
asS'cache_path'
p21
S''
p22
sg11
g12
sS'type'
p23
S'histogram'
p24
sS'options'
p25
(lp26
S'plot'
p27
aS'show'
p28
asba(iAlexaHandler.Block.MessageBlock
MessageBlock
p29
(dp30
g13
S'[user] '
p31
sg19
(lp32
sg11
g12
sS'msg'
p33
Vmessage content
p34
sg23
S'message'
p35
sg25
(lp36
S'execute'
p37
aS'read'
p38
asba(iAlexaHandler.Block.MessageBlock
MessageBlock
p39
(dp40
g13
g31
sg19
(lp41
sg11
g12
sg33
Vmessage content
p42
sg23
g35
sg25
(lp43
g37
ag38
asba(iAlexaHandler.Block.ImageBlock
ImageBlock
p44
(dp45
g13
g9
sg19
(lp46
g9
ag10
asS'cached'
p47
I01
sg11
g12
sg23
S'image'
p48
sg25
(lp49
g28
asS'img_path'
p50
S'/home/alexa_server/Alexa_Server/cache/alexa/test.jpg'
p51
sbasS'ConnectionList'
p52
(lp53
sb.