(iAlexaHandler.Block.BlockChain
BlockChain
p0
(dp1
S'varList'
p2
(lp3
(lp4
S'data table'
p5
aa(lp6
a(lp7
S'test.jpg'
p8
aS'fake_var'
p9
aa(lp10
a(lp11
g5
aa(lp12
a(lp13
g8
ag9
aa(lp14
a(lp15
a(lp16
a(lp17
g5
aasS'session'
p18
S'alexa'
p19
sS'name'
p20
g19
sS'BlockList'
p21
(lp22
(iAlexaHandler.Block.HistogramBlock
HistogramBlock
p23
(dp24
g20
S'plot.png'
p25
sS'vars'
p26
(lp27
g5
asS'cache_path'
p28
S''
p29
sg18
g19
sS'type'
p30
S'histogram'
p31
sS'options'
p32
(lp33
S'plot'
p34
aS'show'
p35
asba(iAlexaHandler.Block.MessageBlock
MessageBlock
p36
(dp37
g20
S'[user] '
p38
sg26
(lp39
sg18
g19
sS'msg'
p40
Vmessage content
p41
sg30
S'message'
p42
sg32
(lp43
S'execute'
p44
aS'read'
p45
asba(iAlexaHandler.Block.ImageBlock
ImageBlock
p46
(dp47
g20
g8
sg26
(lp48
g8
ag9
asS'cached'
p49
I01
sg18
g19
sg30
S'image'
p50
sg32
(lp51
g35
asS'img_path'
p52
S'/home/alexa_server/Alexa_Server/cache/alexa/test.jpg'
p53
sba(iAlexaHandler.Block.MessageBlock
MessageBlock
p54
(dp55
g20
g38
sg26
(lp56
sg18
g19
sg40
Vmessage content
p57
sg30
g42
sg32
(lp58
g44
ag45
asba(iAlexaHandler.Block.HistogramBlock
HistogramBlock
p59
(dp60
g20
g25
sg26
(lp61
g5
asg28
g29
sg18
g19
sg30
g31
sg32
(lp62
g34
ag35
asba(iAlexaHandler.Block.MessageBlock
MessageBlock
p63
(dp64
g20
g38
sg26
(lp65
sg18
g19
sg40
Vmessage content
p66
sg30
g42
sg32
(lp67
g44
ag45
asba(iAlexaHandler.Block.ImageBlock
ImageBlock
p68
(dp69
g20
g8
sg26
(lp70
g8
ag9
asg49
I01
sg18
g19
sg30
g50
sg32
(lp71
g35
asg52
S'/home/alexa_server/Alexa_Server/cache/alexa/test.jpg'
p72
sba(iAlexaHandler.Block.MessageBlock
MessageBlock
p73
(dp74
g20
g38
sg26
(lp75
sg18
g19
sg40
Vmessage content
p76
sg30
g42
sg32
(lp77
g44
ag45
asba(iAlexaHandler.Block.MessageBlock
MessageBlock
p78
(dp79
g20
g38
sg26
(lp80
sg18
g19
sg40
Vmessage content
p81
sg30
g42
sg32
(lp82
g44
ag45
asba(iAlexaHandler.Block.MessageBlock
MessageBlock
p83
(dp84
g20
g38
sg26
(lp85
sg18
g19
sg40
Vmessage content
p86
sg30
g42
sg32
(lp87
g44
ag45
asba(iAlexaHandler.Block.HistogramBlock
HistogramBlock
p88
(dp89
g20
g25
sg26
(lp90
g5
asg28
g29
sg18
g19
sg30
g31
sg32
(lp91
g34
ag35
asbasS'ConnectionList'
p92
(lp93
sb.