(iAlexaHandler.Block.BlockChain
BlockChain
p0
(dp1
S'session'
p2
S'alexa'
p3
sS'name'
p4
g3
sS'BlockList'
p5
(lp6
(iAlexaHandler.Block.MessageBlock
MessageBlock
p7
(dp8
S'msg'
p9
Vmsg
p10
sg2
S'alexa'
p11
sS'type'
p12
S'message'
p13
sg4
S'[user] daphne.response.RFSDVyFvPa!jFdZcQDzKF'
p14
sba(iAlexaHandler.Block.MessageBlock
MessageBlock
p15
(dp16
g9
Vmsg
p17
sg2
g11
sg12
g13
sg4
S'[user] daphne.response.RFSDVyFvPa!jFdZcQDzKF'
p18
sba(iAlexaHandler.Block.MessageBlock
MessageBlock
p19
(dp20
g9
Vmsg
p21
sg2
g11
sg12
g13
sg4
S'[user] daphne.response.RFSDVyFvPa!jFdZcQDzKF'
p22
sba(iAlexaHandler.Block.MessageBlock
MessageBlock
p23
(dp24
g9
Vmsg
p25
sg2
g11
sg12
g13
sg4
S'[user] daphne.response.RFSDVyFvPa!jFdZcQDzKF'
p26
sba(iAlexaHandler.Block.MessageBlock
MessageBlock
p27
(dp28
g9
Vmsg
p29
sg2
g11
sg12
g13
sg4
S'[user] daphne.response.RFSDVyFvPa!jFdZcQDzKF'
p30
sbasS'ConnectionList'
p31
(lp32
sb.