(iAlexaHandler.Block.BlockChain
BlockChain
p0
(dp1
S'session'
p2
S'alexa'
p3
sS'name'
p4
g3
sS'BlockList'
p5
(lp6
(iAlexaHandler.Block.MessageBlock
MessageBlock
p7
(dp8
S'msg'
p9
Vheyho
p10
sg2
g3
sS'type'
p11
S'message'
p12
sg4
S'[user] daphne.response.mJyZELlZjS!FlEHLABUKW'
p13
sba(iAlexaHandler.Block.MessageBlock
MessageBlock
p14
(dp15
g9
Vheyho
p16
sg2
g3
sg11
g12
sg4
S'[user] daphne.response.mJyZELlZjS!FlEHLABUKW'
p17
sba(iAlexaHandler.Block.MessageBlock
MessageBlock
p18
(dp19
g9
Vheyho
p20
sg2
g3
sg11
g12
sg4
S'[user] daphne.response.mJyZELlZjS!FlEHLABUKW'
p21
sba(iAlexaHandler.Block.MessageBlock
MessageBlock
p22
(dp23
g9
Vheyho
p24
sg2
g3
sg11
g12
sg4
S'[user] daphne.response.mJyZELlZjS!FlEHLABUKW'
p25
sbasS'ConnectionList'
p26
(lp27
sb.